; Function Attrs: mustprogress uwtable
define void @_ZNK10open_spiel9dou_dizhu13DouDizhuState8ToStringB5cxx11Ev(ptr dead_on_unwind noalias writable sret(%"class.std::__cxx11::basic_string") align 8 %0, ptr noundef nonnull align 8 dereferenceable(660) %1) unnamed_addr #3 align 2 personality ptr @__gxx_personality_v0 {
  %3 = alloca %"class.absl::debian2::AlphaNum", align 8
  %4 = alloca %"class.std::__cxx11::basic_string", align 8
  %5 = alloca %"class.absl::debian2::AlphaNum", align 8
  %6 = alloca %"class.std::__cxx11::basic_string", align 8
  %7 = alloca %"class.absl::debian2::AlphaNum", align 8
  %8 = alloca %"class.std::__cxx11::basic_string", align 8
  tail call void @_ZNK10open_spiel9dou_dizhu13DouDizhuState10FormatDealB5cxx11Ev(ptr dead_on_unwind writable sret(%"class.std::__cxx11::basic_string") align 8 %0, ptr noundef nonnull align 8 dereferenceable(660) %1)
  %9 = getelementptr inbounds nuw i8, ptr %1, i64 32
  %10 = getelementptr inbounds nuw i8, ptr %1, i64 40
  %11 = load ptr, ptr %10, align 8
  %12 = load ptr, ptr %9, align 8
  %13 = ptrtoint ptr %11 to i64
  %14 = ptrtoint ptr %12 to i64
  %15 = sub i64 %13, %14
  %16 = icmp ugt i64 %15, 832
  br i1 %16, label %17, label %29

17:                                               ; preds = %2
  invoke void @_ZNK10open_spiel9dou_dizhu13DouDizhuState13FormatAuctionB5cxx11Ev(ptr dead_on_unwind nonnull writable sret(%"class.std::__cxx11::basic_string") align 8 %4, ptr noundef nonnull align 8 dereferenceable(660) %1)
          to label %18 unwind label %25

18:                                               ; preds = %17
  %19 = call noundef ptr @_ZNKSt7__cxx1112basic_stringIcSt11char_traitsIcESaIcEE4dataEv(ptr noundef nonnull align 8 dereferenceable(32) %4) #27
  %20 = call noundef i64 @_ZNKSt7__cxx1112basic_stringIcSt11char_traitsIcESaIcEE4sizeEv(ptr noundef nonnull align 8 dereferenceable(32) %4) #27
  store ptr %19, ptr %3, align 8
  %21 = icmp sgt i64 %20, -1
  br i1 %21, label %_ZN4absl7debian28AlphaNumC2ISaIcEEERKNSt7__cxx1112basic_stringIcSt11char_traitsIcET_EE.exit, label %22

22:                                               ; preds = %18
  call void @llvm.trap()
  unreachable

_ZN4absl7debian28AlphaNumC2ISaIcEEERKNSt7__cxx1112basic_stringIcSt11char_traitsIcET_EE.exit: ; preds = %18
  %23 = getelementptr inbounds nuw i8, ptr %3, i64 8
  store i64 %20, ptr %23, align 8
  invoke void @_ZN4absl7debian29StrAppendEPNSt7__cxx1112basic_stringIcSt11char_traitsIcESaIcEEERKNS0_8AlphaNumE(ptr noundef %0, ptr noundef nonnull align 8 dereferenceable(48) %3)
          to label %24 unwind label %27

24:                                               ; preds = %_ZN4absl7debian28AlphaNumC2ISaIcEEERKNSt7__cxx1112basic_stringIcSt11char_traitsIcET_EE.exit
  call void @_ZNSt7__cxx1112basic_stringIcSt11char_traitsIcESaIcEED1Ev(ptr noundef nonnull align 8 dereferenceable(32) %4) #27
  br label %29

25:                                               ; preds = %49, %43, %33, %17
  %26 = landingpad { ptr, i32 }
          cleanup
  br label %60

27:                                               ; preds = %_ZN4absl7debian28AlphaNumC2ISaIcEEERKNSt7__cxx1112basic_stringIcSt11char_traitsIcET_EE.exit
  %28 = landingpad { ptr, i32 }
          cleanup
  call void @_ZNSt7__cxx1112basic_stringIcSt11char_traitsIcESaIcEED1Ev(ptr noundef nonnull align 8 dereferenceable(32) %4) #27
  br label %60

29:                                               ; preds = %24, %2
  %30 = getelementptr inbounds nuw i8, ptr %1, i64 100
  %31 = load i32, ptr %30, align 4
  %32 = icmp sgt i32 %31, 0
  br i1 %32, label %33, label %43

33:                                               ; preds = %29
  invoke void @_ZNK10open_spiel9dou_dizhu13DouDizhuState10FormatPlayB5cxx11Ev(ptr dead_on_unwind nonnull writable sret(%"class.std::__cxx11::basic_string") align 8 %6, ptr noundef nonnull align 8 dereferenceable(660) %1)
          to label %34 unwind label %25

34:                                               ; preds = %33
  %35 = call noundef ptr @_ZNKSt7__cxx1112basic_stringIcSt11char_traitsIcESaIcEE4dataEv(ptr noundef nonnull align 8 dereferenceable(32) %6) #27
  %36 = call noundef i64 @_ZNKSt7__cxx1112basic_stringIcSt11char_traitsIcESaIcEE4sizeEv(ptr noundef nonnull align 8 dereferenceable(32) %6) #27
  store ptr %35, ptr %5, align 8
  %37 = icmp sgt i64 %36, -1
  br i1 %37, label %_ZN4absl7debian28AlphaNumC2ISaIcEEERKNSt7__cxx1112basic_stringIcSt11char_traitsIcET_EE.exit5, label %38

38:                                               ; preds = %34
  call void @llvm.trap()
  unreachable

_ZN4absl7debian28AlphaNumC2ISaIcEEERKNSt7__cxx1112basic_stringIcSt11char_traitsIcET_EE.exit5: ; preds = %34
  %39 = getelementptr inbounds nuw i8, ptr %5, i64 8
  store i64 %36, ptr %39, align 8
  invoke void @_ZN4absl7debian29StrAppendEPNSt7__cxx1112basic_stringIcSt11char_traitsIcESaIcEEERKNS0_8AlphaNumE(ptr noundef %0, ptr noundef nonnull align 8 dereferenceable(48) %5)
          to label %40 unwind label %41

40:                                               ; preds = %_ZN4absl7debian28AlphaNumC2ISaIcEEERKNSt7__cxx1112basic_stringIcSt11char_traitsIcET_EE.exit5
  call void @_ZNSt7__cxx1112basic_stringIcSt11char_traitsIcESaIcEED1Ev(ptr noundef nonnull align 8 dereferenceable(32) %6) #27
  br label %43

41:                                               ; preds = %_ZN4absl7debian28AlphaNumC2ISaIcEEERKNSt7__cxx1112basic_stringIcSt11char_traitsIcET_EE.exit5
  %42 = landingpad { ptr, i32 }
          cleanup
  call void @_ZNSt7__cxx1112basic_stringIcSt11char_traitsIcESaIcEED1Ev(ptr noundef nonnull align 8 dereferenceable(32) %6) #27
  br label %60

43:                                               ; preds = %40, %29
  %44 = load ptr, ptr %1, align 8
  %45 = getelementptr inbounds nuw i8, ptr %44, i64 88
  %46 = load ptr, ptr %45, align 8
  %47 = invoke noundef zeroext i1 %46(ptr noundef nonnull align 8 dereferenceable(660) %1)
          to label %48 unwind label %25

48:                                               ; preds = %43
  br i1 %47, label %49, label %59

49:                                               ; preds = %48
  invoke void @_ZNK10open_spiel9dou_dizhu13DouDizhuState12FormatResultB5cxx11Ev(ptr dead_on_unwind nonnull writable sret(%"class.std::__cxx11::basic_string") align 8 %8, ptr noundef nonnull align 8 dereferenceable(660) %1)
          to label %50 unwind label %25

50:                                               ; preds = %49
  %51 = call noundef ptr @_ZNKSt7__cxx1112basic_stringIcSt11char_traitsIcESaIcEE4dataEv(ptr noundef nonnull align 8 dereferenceable(32) %8) #27
  %52 = call noundef i64 @_ZNKSt7__cxx1112basic_stringIcSt11char_traitsIcESaIcEE4sizeEv(ptr noundef nonnull align 8 dereferenceable(32) %8) #27
  store ptr %51, ptr %7, align 8
  %53 = icmp sgt i64 %52, -1
  br i1 %53, label %_ZN4absl7debian28AlphaNumC2ISaIcEEERKNSt7__cxx1112basic_stringIcSt11char_traitsIcET_EE.exit6, label %54

54:                                               ; preds = %50
  call void @llvm.trap()
  unreachable

_ZN4absl7debian28AlphaNumC2ISaIcEEERKNSt7__cxx1112basic_stringIcSt11char_traitsIcET_EE.exit6: ; preds = %50
  %55 = getelementptr inbounds nuw i8, ptr %7, i64 8
  store i64 %52, ptr %55, align 8
  invoke void @_ZN4absl7debian29StrAppendEPNSt7__cxx1112basic_stringIcSt11char_traitsIcESaIcEEERKNS0_8AlphaNumE(ptr noundef %0, ptr noundef nonnull align 8 dereferenceable(48) %7)
          to label %56 unwind label %57

56:                                               ; preds = %_ZN4absl7debian28AlphaNumC2ISaIcEEERKNSt7__cxx1112basic_stringIcSt11char_traitsIcET_EE.exit6
  call void @_ZNSt7__cxx1112basic_stringIcSt11char_traitsIcESaIcEED1Ev(ptr noundef nonnull align 8 dereferenceable(32) %8) #27
  br label %59

57:                                               ; preds = %_ZN4absl7debian28AlphaNumC2ISaIcEEERKNSt7__cxx1112basic_stringIcSt11char_traitsIcET_EE.exit6
  %58 = landingpad { ptr, i32 }
          cleanup
  call void @_ZNSt7__cxx1112basic_stringIcSt11char_traitsIcESaIcEED1Ev(ptr noundef nonnull align 8 dereferenceable(32) %8) #27
  br label %60

59:                                               ; preds = %48, %56
  ret void

60:                                               ; preds = %57, %41, %27, %25
  %.pn = phi { ptr, i32 } [ %58, %57 ], [ %26, %25 ], [ %42, %41 ], [ %28, %27 ]
  call void @_ZNSt7__cxx1112basic_stringIcSt11char_traitsIcESaIcEED1Ev(ptr noundef nonnull align 8 dereferenceable(32) %0) #27
  resume { ptr, i32 } %.pn
}